target datalayout = "e-m:e-p270:32:32-p271:32:32-p272:64:64-i64:64-i128:128-f80:128-n8:16:32:64-S128"
target triple = "x86_64-pc-linux-gnu"

%struct.stbi_io_callbacks = type { ptr, ptr, ptr }
%struct.stbi__context = type { i32, i32, i32, i32, %struct.stbi_io_callbacks, ptr, i32, i32, [128 x i8], i32, ptr, ptr, ptr, ptr }
%struct.stbi__png = type { ptr, ptr, ptr, ptr, i32 }

@_ZL34stbi__unpremultiply_on_load_global = internal global i32 0, align 4

; Function Attrs: mustprogress nounwind uwtable
define internal void @_ZL15stbi__de_iphoneP9stbi__png(ptr noundef %0) #0 {
  %2 = alloca ptr, align 8
  %3 = alloca ptr, align 8
  %4 = alloca i32, align 4
  %5 = alloca i32, align 4
  %6 = alloca ptr, align 8
  %7 = alloca i8, align 1
  %8 = alloca i8, align 1
  %9 = alloca i8, align 1
  %10 = alloca i8, align 1
  %11 = alloca i8, align 1
  store ptr %0, ptr %2, align 8, !tbaa !10
  call void @llvm.lifetime.start.p0(i64 8, ptr %3) #22
  %12 = load ptr, ptr %2, align 8, !tbaa !10
  %13 = getelementptr inbounds nuw %struct.stbi__png, ptr %12, i32 0, i32 0
  %14 = load ptr, ptr %13, align 8, !tbaa !44
  store ptr %14, ptr %3, align 8, !tbaa !10
  call void @llvm.lifetime.start.p0(i64 4, ptr %4) #22
  call void @llvm.lifetime.start.p0(i64 4, ptr %5) #22
  %15 = load ptr, ptr %3, align 8, !tbaa !10
  %16 = getelementptr inbounds nuw %struct.stbi__context, ptr %15, i32 0, i32 0
  %17 = load i32, ptr %16, align 8, !tbaa !49
  %18 = load ptr, ptr %3, align 8, !tbaa !10
  %19 = getelementptr inbounds nuw %struct.stbi__context, ptr %18, i32 0, i32 1
  %20 = load i32, ptr %19, align 4, !tbaa !48
  %21 = mul i32 %17, %20
  store i32 %21, ptr %5, align 4, !tbaa !11
  call void @llvm.lifetime.start.p0(i64 8, ptr %6) #22
  %22 = load ptr, ptr %2, align 8, !tbaa !10
  %23 = getelementptr inbounds nuw %struct.stbi__png, ptr %22, i32 0, i32 3
  %24 = load ptr, ptr %23, align 8, !tbaa !74
  store ptr %24, ptr %6, align 8, !tbaa !5
  %25 = load ptr, ptr %3, align 8, !tbaa !10
  %26 = getelementptr inbounds nuw %struct.stbi__context, ptr %25, i32 0, i32 3
  %27 = load i32, ptr %26, align 4, !tbaa !75
  %28 = icmp eq i32 %27, 3
  br i1 %28, label %29, label %52

29:                                               ; preds = %1
  store i32 0, ptr %4, align 4, !tbaa !11
  br label %30

30:                                               ; preds = %48, %29
  %31 = load i32, ptr %4, align 4, !tbaa !11
  %32 = load i32, ptr %5, align 4, !tbaa !11
  %33 = icmp ult i32 %31, %32
  br i1 %33, label %34, label %51

34:                                               ; preds = %30
  call void @llvm.lifetime.start.p0(i64 1, ptr %7) #22
  %35 = load ptr, ptr %6, align 8, !tbaa !5
  %36 = getelementptr inbounds i8, ptr %35, i64 0
  %37 = load i8, ptr %36, align 1, !tbaa !31
  store i8 %37, ptr %7, align 1, !tbaa !31
  %38 = load ptr, ptr %6, align 8, !tbaa !5
  %39 = getelementptr inbounds i8, ptr %38, i64 2
  %40 = load i8, ptr %39, align 1, !tbaa !31
  %41 = load ptr, ptr %6, align 8, !tbaa !5
  %42 = getelementptr inbounds i8, ptr %41, i64 0
  store i8 %40, ptr %42, align 1, !tbaa !31
  %43 = load i8, ptr %7, align 1, !tbaa !31
  %44 = load ptr, ptr %6, align 8, !tbaa !5
  %45 = getelementptr inbounds i8, ptr %44, i64 2
  store i8 %43, ptr %45, align 1, !tbaa !31
  %46 = load ptr, ptr %6, align 8, !tbaa !5
  %47 = getelementptr inbounds i8, ptr %46, i64 3
  store ptr %47, ptr %6, align 8, !tbaa !5
  call void @llvm.lifetime.end.p0(i64 1, ptr %7) #22
  br label %48

48:                                               ; preds = %34
  %49 = load i32, ptr %4, align 4, !tbaa !11
  %50 = add i32 %49, 1
  store i32 %50, ptr %4, align 4, !tbaa !11
  br label %30, !llvm.loop !127

51:                                               ; preds = %30
  br label %154

52:                                               ; preds = %1
  %53 = load i32, ptr @_ZL34stbi__unpremultiply_on_load_global, align 4, !tbaa !11
  %54 = icmp ne i32 %53, 0
  br i1 %54, label %55, label %130

55:                                               ; preds = %52
  store i32 0, ptr %4, align 4, !tbaa !11
  br label %56

56:                                               ; preds = %126, %55
  %57 = load i32, ptr %4, align 4, !tbaa !11
  %58 = load i32, ptr %5, align 4, !tbaa !11
  %59 = icmp ult i32 %57, %58
  br i1 %59, label %60, label %129

60:                                               ; preds = %56
  call void @llvm.lifetime.start.p0(i64 1, ptr %8) #22
  %61 = load ptr, ptr %6, align 8, !tbaa !5
  %62 = getelementptr inbounds i8, ptr %61, i64 3
  %63 = load i8, ptr %62, align 1, !tbaa !31
  store i8 %63, ptr %8, align 1, !tbaa !31
  call void @llvm.lifetime.start.p0(i64 1, ptr %9) #22
  %64 = load ptr, ptr %6, align 8, !tbaa !5
  %65 = getelementptr inbounds i8, ptr %64, i64 0
  %66 = load i8, ptr %65, align 1, !tbaa !31
  store i8 %66, ptr %9, align 1, !tbaa !31
  %67 = load i8, ptr %8, align 1, !tbaa !31
  %68 = icmp ne i8 %67, 0
  br i1 %68, label %69, label %114

69:                                               ; preds = %60
  call void @llvm.lifetime.start.p0(i64 1, ptr %10) #22
  %70 = load i8, ptr %8, align 1, !tbaa !31
  %71 = zext i8 %70 to i32
  %72 = sdiv i32 %71, 2
  %73 = trunc i32 %72 to i8
  store i8 %73, ptr %10, align 1, !tbaa !31
  %74 = load ptr, ptr %6, align 8, !tbaa !5
  %75 = getelementptr inbounds i8, ptr %74, i64 2
  %76 = load i8, ptr %75, align 1, !tbaa !31
  %77 = zext i8 %76 to i32
  %78 = mul nsw i32 %77, 255
  %79 = load i8, ptr %10, align 1, !tbaa !31
  %80 = zext i8 %79 to i32
  %81 = add nsw i32 %78, %80
  %82 = load i8, ptr %8, align 1, !tbaa !31
  %83 = zext i8 %82 to i32
  %84 = sdiv i32 %81, %83
  %85 = trunc i32 %84 to i8
  %86 = load ptr, ptr %6, align 8, !tbaa !5
  %87 = getelementptr inbounds i8, ptr %86, i64 0
  store i8 %85, ptr %87, align 1, !tbaa !31
  %88 = load ptr, ptr %6, align 8, !tbaa !5
  %89 = getelementptr inbounds i8, ptr %88, i64 1
  %90 = load i8, ptr %89, align 1, !tbaa !31
  %91 = zext i8 %90 to i32
  %92 = mul nsw i32 %91, 255
  %93 = load i8, ptr %10, align 1, !tbaa !31
  %94 = zext i8 %93 to i32
  %95 = add nsw i32 %92, %94
  %96 = load i8, ptr %8, align 1, !tbaa !31
  %97 = zext i8 %96 to i32
  %98 = sdiv i32 %95, %97
  %99 = trunc i32 %98 to i8
  %100 = load ptr, ptr %6, align 8, !tbaa !5
  %101 = getelementptr inbounds i8, ptr %100, i64 1
  store i8 %99, ptr %101, align 1, !tbaa !31
  %102 = load i8, ptr %9, align 1, !tbaa !31
  %103 = zext i8 %102 to i32
  %104 = mul nsw i32 %103, 255
  %105 = load i8, ptr %10, align 1, !tbaa !31
  %106 = zext i8 %105 to i32
  %107 = add nsw i32 %104, %106
  %108 = load i8, ptr %8, align 1, !tbaa !31
  %109 = zext i8 %108 to i32
  %110 = sdiv i32 %107, %109
  %111 = trunc i32 %110 to i8
  %112 = load ptr, ptr %6, align 8, !tbaa !5
  %113 = getelementptr inbounds i8, ptr %112, i64 2
  store i8 %111, ptr %113, align 1, !tbaa !31
  call void @llvm.lifetime.end.p0(i64 1, ptr %10) #22
  br label %123

114:                                              ; preds = %60
  %115 = load ptr, ptr %6, align 8, !tbaa !5
  %116 = getelementptr inbounds i8, ptr %115, i64 2
  %117 = load i8, ptr %116, align 1, !tbaa !31
  %118 = load ptr, ptr %6, align 8, !tbaa !5
  %119 = getelementptr inbounds i8, ptr %118, i64 0
  store i8 %117, ptr %119, align 1, !tbaa !31
  %120 = load i8, ptr %9, align 1, !tbaa !31
  %121 = load ptr, ptr %6, align 8, !tbaa !5
  %122 = getelementptr inbounds i8, ptr %121, i64 2
  store i8 %120, ptr %122, align 1, !tbaa !31
  br label %123

123:                                              ; preds = %114, %69
  %124 = load ptr, ptr %6, align 8, !tbaa !5
  %125 = getelementptr inbounds i8, ptr %124, i64 4
  store ptr %125, ptr %6, align 8, !tbaa !5
  call void @llvm.lifetime.end.p0(i64 1, ptr %9) #22
  call void @llvm.lifetime.end.p0(i64 1, ptr %8) #22
  br label %126

126:                                              ; preds = %123
  %127 = load i32, ptr %4, align 4, !tbaa !11
  %128 = add i32 %127, 1
  store i32 %128, ptr %4, align 4, !tbaa !11
  br label %56, !llvm.loop !128

129:                                              ; preds = %56
  br label %153

130:                                              ; preds = %52
  store i32 0, ptr %4, align 4, !tbaa !11
  br label %131

131:                                              ; preds = %149, %130
  %132 = load i32, ptr %4, align 4, !tbaa !11
  %133 = load i32, ptr %5, align 4, !tbaa !11
  %134 = icmp ult i32 %132, %133
  br i1 %134, label %135, label %152

135:                                              ; preds = %131
  call void @llvm.lifetime.start.p0(i64 1, ptr %11) #22
  %136 = load ptr, ptr %6, align 8, !tbaa !5
  %137 = getelementptr inbounds i8, ptr %136, i64 0
  %138 = load i8, ptr %137, align 1, !tbaa !31
  store i8 %138, ptr %11, align 1, !tbaa !31
  %139 = load ptr, ptr %6, align 8, !tbaa !5
  %140 = getelementptr inbounds i8, ptr %139, i64 2
  %141 = load i8, ptr %140, align 1, !tbaa !31
  %142 = load ptr, ptr %6, align 8, !tbaa !5
  %143 = getelementptr inbounds i8, ptr %142, i64 0
  store i8 %141, ptr %143, align 1, !tbaa !31
  %144 = load i8, ptr %11, align 1, !tbaa !31
  %145 = load ptr, ptr %6, align 8, !tbaa !5
  %146 = getelementptr inbounds i8, ptr %145, i64 2
  store i8 %144, ptr %146, align 1, !tbaa !31
  %147 = load ptr, ptr %6, align 8, !tbaa !5
  %148 = getelementptr inbounds i8, ptr %147, i64 4
  store ptr %148, ptr %6, align 8, !tbaa !5
  call void @llvm.lifetime.end.p0(i64 1, ptr %11) #22
  br label %149

149:                                              ; preds = %135
  %150 = load i32, ptr %4, align 4, !tbaa !11
  %151 = add i32 %150, 1
  store i32 %151, ptr %4, align 4, !tbaa !11
  br label %131, !llvm.loop !129

152:                                              ; preds = %131
  br label %153

153:                                              ; preds = %152, %129
  br label %154

154:                                              ; preds = %153, %51
  call void @llvm.lifetime.end.p0(i64 8, ptr %6) #22
  call void @llvm.lifetime.end.p0(i64 4, ptr %5) #22
  call void @llvm.lifetime.end.p0(i64 4, ptr %4) #22
  call void @llvm.lifetime.end.p0(i64 8, ptr %3) #22
  ret void
}