; Function Attrs: mustprogress nofree norecurse nosync nounwind memory(read, argmem: readwrite, inaccessiblemem: none) uwtable
define internal fastcc void @_ZL15stbi__de_iphoneP9stbi__png(ptr readonly captures(none) %.0.val, ptr captures(none) %.24.val) unnamed_addr #15 {
  %1 = load i32, ptr %.0.val, align 8, !tbaa !42
  %2 = getelementptr inbounds nuw i8, ptr %.0.val, i64 4
  %3 = load i32, ptr %2, align 4, !tbaa !43
  %4 = mul i32 %3, %1
  %5 = getelementptr inbounds nuw i8, ptr %.0.val, i64 12
  %6 = load i32, ptr %5, align 4, !tbaa !41
  %7 = icmp eq i32 %6, 3
  br i1 %7, label %.preheader, label %13

.preheader:                                       ; preds = %0
  %.not21 = icmp eq i32 %4, 0
  br i1 %.not21, label %.loopexit, label %.lr.ph18

.lr.ph18:                                         ; preds = %.preheader, %.lr.ph18
  %.017 = phi i32 [ %12, %.lr.ph18 ], [ 0, %.preheader ]
  %.04616 = phi ptr [ %11, %.lr.ph18 ], [ %.24.val, %.preheader ]
  %8 = load i8, ptr %.04616, align 1, !tbaa !23
  %9 = getelementptr inbounds nuw i8, ptr %.04616, i64 2
  %10 = load i8, ptr %9, align 1, !tbaa !23
  store i8 %10, ptr %.04616, align 1, !tbaa !23
  store i8 %8, ptr %9, align 1, !tbaa !23
  %11 = getelementptr inbounds nuw i8, ptr %.04616, i64 3
  %12 = add nuw i32 %.017, 1
  %exitcond25.not = icmp eq i32 %12, %4
  br i1 %exitcond25.not, label %.loopexit, label %.lr.ph18, !llvm.loop !211

13:                                               ; preds = %0
  %14 = load i32, ptr @_ZL34stbi__unpremultiply_on_load_global, align 4, !tbaa !10
  %.not = icmp eq i32 %14, 0
  %.not20 = icmp eq i32 %4, 0
  br i1 %.not, label %.preheader7, label %.preheader9

.preheader9:                                      ; preds = %13
  br i1 %.not20, label %.loopexit, label %.lr.ph

.preheader7:                                      ; preds = %13
  br i1 %.not20, label %.loopexit, label %.lr.ph15

.lr.ph:                                           ; preds = %.preheader9, %43
  %.112 = phi i32 [ %45, %43 ], [ 0, %.preheader9 ]
  %.14711 = phi ptr [ %44, %43 ], [ %.24.val, %.preheader9 ]
  %15 = getelementptr inbounds nuw i8, ptr %.14711, i64 3
  %16 = load i8, ptr %15, align 1, !tbaa !23
  %17 = load i8, ptr %.14711, align 1, !tbaa !23
  %.not50 = icmp eq i8 %16, 0
  br i1 %.not50, label %40, label %18

18:                                               ; preds = %.lr.ph
  %19 = lshr i8 %16, 1
  %20 = getelementptr inbounds nuw i8, ptr %.14711, i64 2
  %21 = load i8, ptr %20, align 1, !tbaa !23
  %22 = zext i8 %21 to i32
  %23 = mul nuw nsw i32 %22, 255
  %24 = zext nneg i8 %19 to i32
  %25 = add nuw nsw i32 %23, %24
  %.lhs.trunc = trunc nuw i32 %25 to i16
  %.rhs.trunc = zext i8 %16 to i16
  %26 = udiv i16 %.lhs.trunc, %.rhs.trunc
  %27 = trunc i16 %26 to i8
  store i8 %27, ptr %.14711, align 1, !tbaa !23
  %28 = getelementptr inbounds nuw i8, ptr %.14711, i64 1
  %29 = load i8, ptr %28, align 1, !tbaa !23
  %30 = zext i8 %29 to i32
  %31 = mul nuw nsw i32 %30, 255
  %32 = add nuw nsw i32 %31, %24
  %.lhs.trunc1 = trunc nuw i32 %32 to i16
  %33 = udiv i16 %.lhs.trunc1, %.rhs.trunc
  %34 = trunc i16 %33 to i8
  store i8 %34, ptr %28, align 1, !tbaa !23
  %35 = zext i8 %17 to i32
  %36 = mul nuw nsw i32 %35, 255
  %37 = add nuw nsw i32 %36, %24
  %.lhs.trunc4 = trunc nuw i32 %37 to i16
  %38 = udiv i16 %.lhs.trunc4, %.rhs.trunc
  %39 = trunc i16 %38 to i8
  store i8 %39, ptr %20, align 1, !tbaa !23
  br label %43

40:                                               ; preds = %.lr.ph
  %41 = getelementptr inbounds nuw i8, ptr %.14711, i64 2
  %42 = load i8, ptr %41, align 1, !tbaa !23
  store i8 %42, ptr %.14711, align 1, !tbaa !23
  store i8 %17, ptr %41, align 1, !tbaa !23
  br label %43

43:                                               ; preds = %40, %18
  %44 = getelementptr inbounds nuw i8, ptr %.14711, i64 4
  %45 = add nuw i32 %.112, 1
  %exitcond.not = icmp eq i32 %45, %4
  br i1 %exitcond.not, label %.loopexit, label %.lr.ph, !llvm.loop !212

.lr.ph15:                                         ; preds = %.preheader7, %.lr.ph15
  %.214 = phi i32 [ %50, %.lr.ph15 ], [ 0, %.preheader7 ]
  %.24813 = phi ptr [ %49, %.lr.ph15 ], [ %.24.val, %.preheader7 ]
  %46 = load i8, ptr %.24813, align 1, !tbaa !23
  %47 = getelementptr inbounds nuw i8, ptr %.24813, i64 2
  %48 = load i8, ptr %47, align 1, !tbaa !23
  store i8 %48, ptr %.24813, align 1, !tbaa !23
  store i8 %46, ptr %47, align 1, !tbaa !23
  %49 = getelementptr inbounds nuw i8, ptr %.24813, i64 4
  %50 = add nuw i32 %.214, 1
  %exitcond24.not = icmp eq i32 %50, %4
  br i1 %exitcond24.not, label %.loopexit, label %.lr.ph15, !llvm.loop !213

.loopexit:                                        ; preds = %43, %.lr.ph15, %.lr.ph18, %.preheader9, %.preheader7, %.preheader
  ret void
}